c__builtin__
set
p0
((lp1
S'telangana'
p2
aS'uttarakhand'
p3
aS'karnataka'
p4
aS'himachal pradesh'
p5
aS'mizoram'
p6
aS'odisha'
p7
aS'chattisgarh'
p8
aS'tamil nadu'
p9
aS'nagaland'
p10
aS'pondicherry'
p11
aS'haryana'
p12
aS'punjab'
p13
aS'goa'
p14
aS'kerala'
p15
aS'bihar'
p16
aS'west bengal'
p17
aS'chandigarh'
p18
aS'andhra pradesh'
p19
aS'jharkhand'
p20
aS'meghalaya'
p21
aS'delhi'
p22
aS'assam'
p23
aS'lakshadweep'
p24
aS'manipur'
p25
aS'rajasthan'
p26
aS'arunachal pradesh'
p27
aS'sikkim'
p28
aS'jammu & kashmir'
p29
aS'andaman & nicobar islands'
p30
aS'daman & diu'
p31
aS'madhya pradesh'
p32
aS'uttar pradesh'
p33
aS'gujarat'
p34
aS'dadra & nagar haveli'
p35
aS'maharashtra'
p36
aS'tripura'
p37
atp38
Rp39
.